; Function Attrs: mustprogress uwtable
define hidden noundef ptr @_ZN6google8protobuf8internal29GetPrototypeForWeakDescriptorEPKNS1_15DescriptorTableEi(ptr noundef %table, i32 noundef %index) local_unnamed_addr #4 personality ptr @__gxx_personality_v0 {
entry:
  %ref.tmp3 = alloca %"class.absl::lts_20230802::log_internal::LogMessageFatal", align 8
  %0 = load atomic i8, ptr @_ZN6google8protobuf8internal28init_protobuf_defaults_stateE acquire, align 1
  %1 = and i8 %0, 1
  %tobool.i.i.not.i = icmp eq i8 %1, 0
  br i1 %tobool.i.i.not.i, label %if.then.i, label %_ZN6google8protobuf8internal20InitProtobufDefaultsEv.exit

if.then.i:                                        ; preds = %entry
  tail call void @_ZN6google8protobuf8internal24InitProtobufDefaultsSlowEv()
  br label %_ZN6google8protobuf8internal20InitProtobufDefaultsEv.exit

_ZN6google8protobuf8internal20InitProtobufDefaultsEv.exit: ; preds = %entry, %if.then.i
  %default_instances = getelementptr inbounds i8, ptr %table, i64 56
  %2 = load ptr, ptr %default_instances, align 8
  %idxprom = sext i32 %index to i64
  %arrayidx = getelementptr inbounds ptr, ptr %2, i64 %idxprom
  %3 = load ptr, ptr %arrayidx, align 8
  %tobool.not = icmp eq ptr %3, null
  br i1 %tobool.not, label %if.end, label %return

if.end:                                           ; preds = %_ZN6google8protobuf8internal20InitProtobufDefaultsEv.exit
  tail call void @_ZN6google8protobuf8internal17AssignDescriptorsEPKNS1_15DescriptorTableE(ptr noundef nonnull %table)
  %file_level_metadata = getelementptr inbounds i8, ptr %table, i64 72
  %4 = load ptr, ptr %file_level_metadata, align 8
  %arrayidx2 = getelementptr inbounds %"struct.google::protobuf::Metadata", ptr %4, i64 %idxprom
  %5 = load ptr, ptr %arrayidx2, align 8
  %cmp.not = icmp eq ptr %5, null
  br i1 %cmp.not, label %cond.false, label %cleanup.done

cond.false:                                       ; preds = %if.end
  call void @_ZN4absl12lts_2023080212log_internal15LogMessageFatalC1EPKciSt17basic_string_viewIcSt11char_traitsIcEE(ptr noundef nonnull align 8 dereferenceable(16) %ref.tmp3, ptr noundef nonnull @.str, i32 noundef 3833, i64 55, ptr nonnull @.str.105) #31
  call void @_ZN4absl12lts_2023080212log_internal15LogMessageFatalD1Ev(ptr noundef nonnull align 8 dereferenceable(16) %ref.tmp3) #32
  unreachable

cleanup.done:                                     ; preds = %if.end
  %call8 = tail call noundef ptr @_ZN6google8protobuf14MessageFactory17generated_factoryEv()
  %6 = load ptr, ptr %file_level_metadata, align 8
  %arrayidx11 = getelementptr inbounds %"struct.google::protobuf::Metadata", ptr %6, i64 %idxprom
  %7 = load ptr, ptr %arrayidx11, align 8
  %vtable = load ptr, ptr %call8, align 8
  %vfn = getelementptr inbounds i8, ptr %vtable, i64 16
  %8 = load ptr, ptr %vfn, align 8
  %call13 = tail call noundef ptr %8(ptr noundef nonnull align 8 dereferenceable(8) %call8, ptr noundef %7)
  br label %return

return:                                           ; preds = %_ZN6google8protobuf8internal20InitProtobufDefaultsEv.exit, %cleanup.done
  %retval.0 = phi ptr [ %call13, %cleanup.done ], [ %3, %_ZN6google8protobuf8internal20InitProtobufDefaultsEv.exit ]
  ret ptr %retval.0
}